; Function Attrs: mustprogress uwtable
define internal fastcc void @_ZN2cv12_GLOBAL__N_114colorspaceNameB5cxx11E11COLOR_SPACE(ptr dead_on_unwind noalias writable align 8 %0, i32 noundef %1) unnamed_addr #3 personality ptr @__gxx_personality_v0 {
  %3 = alloca %"class.std::allocator", align 1
  %4 = alloca %"class.std::allocator", align 1
  %5 = alloca %"class.std::allocator", align 1
  %6 = alloca %"class.std::allocator", align 1
  %7 = alloca %"class.std::allocator", align 1
  %8 = alloca %"class.std::allocator", align 1
  %9 = alloca %"class.std::allocator", align 1
  %10 = alloca %"class.std::__cxx11::basic_string", align 8
  %11 = alloca %"class.std::allocator", align 1
  switch i32 %1, label %33 [
    i32 5, label %12
    i32 1, label %15
    i32 4, label %18
    i32 2, label %21
    i32 3, label %24
    i32 -1, label %27
    i32 0, label %30
  ]

12:                                               ; preds = %2
  call void @_ZNSaIcEC1Ev(ptr noundef nonnull align 1 dereferenceable(1) %3) #19
  invoke void @_ZNSt7__cxx1112basic_stringIcSt11char_traitsIcESaIcEEC1EPKcRKS3_(ptr noundef nonnull align 8 dereferenceable(32) %0, ptr noundef nonnull @.str.49, ptr noundef nonnull align 1 dereferenceable(1) %3)
          to label %40 unwind label %13

13:                                               ; preds = %12
  %14 = landingpad { ptr, i32 }
          cleanup
  br label %41

15:                                               ; preds = %2
  call void @_ZNSaIcEC1Ev(ptr noundef nonnull align 1 dereferenceable(1) %4) #19
  invoke void @_ZNSt7__cxx1112basic_stringIcSt11char_traitsIcESaIcEEC1EPKcRKS3_(ptr noundef nonnull align 8 dereferenceable(32) %0, ptr noundef nonnull @.str.50, ptr noundef nonnull align 1 dereferenceable(1) %4)
          to label %40 unwind label %16

16:                                               ; preds = %15
  %17 = landingpad { ptr, i32 }
          cleanup
  br label %41

18:                                               ; preds = %2
  call void @_ZNSaIcEC1Ev(ptr noundef nonnull align 1 dereferenceable(1) %5) #19
  invoke void @_ZNSt7__cxx1112basic_stringIcSt11char_traitsIcESaIcEEC1EPKcRKS3_(ptr noundef nonnull align 8 dereferenceable(32) %0, ptr noundef nonnull @.str.51, ptr noundef nonnull align 1 dereferenceable(1) %5)
          to label %40 unwind label %19

19:                                               ; preds = %18
  %20 = landingpad { ptr, i32 }
          cleanup
  br label %41

21:                                               ; preds = %2
  call void @_ZNSaIcEC1Ev(ptr noundef nonnull align 1 dereferenceable(1) %6) #19
  invoke void @_ZNSt7__cxx1112basic_stringIcSt11char_traitsIcESaIcEEC1EPKcRKS3_(ptr noundef nonnull align 8 dereferenceable(32) %0, ptr noundef nonnull @.str.52, ptr noundef nonnull align 1 dereferenceable(1) %6)
          to label %40 unwind label %22

22:                                               ; preds = %21
  %23 = landingpad { ptr, i32 }
          cleanup
  br label %41

24:                                               ; preds = %2
  call void @_ZNSaIcEC1Ev(ptr noundef nonnull align 1 dereferenceable(1) %7) #19
  invoke void @_ZNSt7__cxx1112basic_stringIcSt11char_traitsIcESaIcEEC1EPKcRKS3_(ptr noundef nonnull align 8 dereferenceable(32) %0, ptr noundef nonnull @.str.53, ptr noundef nonnull align 1 dereferenceable(1) %7)
          to label %40 unwind label %25

25:                                               ; preds = %24
  %26 = landingpad { ptr, i32 }
          cleanup
  br label %41

27:                                               ; preds = %2
  call void @_ZNSaIcEC1Ev(ptr noundef nonnull align 1 dereferenceable(1) %8) #19
  invoke void @_ZNSt7__cxx1112basic_stringIcSt11char_traitsIcESaIcEEC1EPKcRKS3_(ptr noundef nonnull align 8 dereferenceable(32) %0, ptr noundef nonnull @.str.54, ptr noundef nonnull align 1 dereferenceable(1) %8)
          to label %40 unwind label %28

28:                                               ; preds = %27
  %29 = landingpad { ptr, i32 }
          cleanup
  br label %41

30:                                               ; preds = %2
  call void @_ZNSaIcEC1Ev(ptr noundef nonnull align 1 dereferenceable(1) %9) #19
  invoke void @_ZNSt7__cxx1112basic_stringIcSt11char_traitsIcESaIcEEC1EPKcRKS3_(ptr noundef nonnull align 8 dereferenceable(32) %0, ptr noundef nonnull @.str.55, ptr noundef nonnull align 1 dereferenceable(1) %9)
          to label %40 unwind label %31

31:                                               ; preds = %30
  %32 = landingpad { ptr, i32 }
          cleanup
  br label %41

33:                                               ; preds = %2
  call void @_ZNSaIcEC1Ev(ptr noundef nonnull align 1 dereferenceable(1) %11) #19
  invoke void @_ZNSt7__cxx1112basic_stringIcSt11char_traitsIcESaIcEEC1EPKcRKS3_(ptr noundef nonnull align 8 dereferenceable(32) %10, ptr noundef nonnull @.str.56, ptr noundef nonnull align 1 dereferenceable(1) %11)
          to label %34 unwind label %36

34:                                               ; preds = %33
  invoke void @_ZN2cv5errorEiRKNSt7__cxx1112basic_stringIcSt11char_traitsIcESaIcEEEPKcS9_i(i32 noundef -213, ptr noundef nonnull align 8 dereferenceable(32) %10, ptr noundef nonnull @__func__._ZN2cv12_GLOBAL__N_114colorspaceNameB5cxx11E11COLOR_SPACE, ptr noundef nonnull @.str.1, i32 noundef 37) #21
          to label %35 unwind label %38

35:                                               ; preds = %34
  unreachable

36:                                               ; preds = %33
  %37 = landingpad { ptr, i32 }
          cleanup
  br label %41

38:                                               ; preds = %34
  %39 = landingpad { ptr, i32 }
          cleanup
  call void @_ZNSt7__cxx1112basic_stringIcSt11char_traitsIcESaIcEED1Ev(ptr noundef nonnull align 8 dereferenceable(32) %10) #19
  br label %41

40:                                               ; preds = %30, %27, %24, %21, %18, %15, %12
  %.sink = phi ptr [ %3, %12 ], [ %4, %15 ], [ %5, %18 ], [ %6, %21 ], [ %7, %24 ], [ %8, %27 ], [ %9, %30 ]
  call void @_ZNSaIcED1Ev(ptr noundef nonnull align 1 dereferenceable(1) %.sink) #19
  ret void

41:                                               ; preds = %36, %38, %31, %28, %25, %22, %19, %16, %13
  %.sink6 = phi ptr [ %9, %31 ], [ %8, %28 ], [ %7, %25 ], [ %6, %22 ], [ %5, %19 ], [ %4, %16 ], [ %3, %13 ], [ %11, %38 ], [ %11, %36 ]
  %.pn.pn = phi { ptr, i32 } [ %32, %31 ], [ %29, %28 ], [ %26, %25 ], [ %23, %22 ], [ %20, %19 ], [ %17, %16 ], [ %14, %13 ], [ %39, %38 ], [ %37, %36 ]
  call void @_ZNSaIcED1Ev(ptr noundef nonnull align 1 dereferenceable(1) %.sink6) #19
  resume { ptr, i32 } %.pn.pn
}